;--------------------------------------------------------
; File Created by SDCC : free open source ANSI-C Compiler
; Version 2.9.4 #5595 (Nov 14 2017) (UNIX)
; This file was generated Sat Nov 18 11:12:32 2017
;--------------------------------------------------------
; PIC16 port for the Microchip 16-bit core micros
;--------------------------------------------------------
	list	p=18f97j60

	radix dec

;--------------------------------------------------------
; public variables in this module
;--------------------------------------------------------
	global _min
	global _DisplayWORD
	global _DisplayString
	global _strlcpy
	global _hour
	global _timeValue
	global _updateTime
	global _hour_isr
	global _main

;--------------------------------------------------------
; extern variables in this module
;--------------------------------------------------------
	extern __gptrput1
	extern __gptrget1
	extern _EBSTCONbits
	extern _MISTATbits
	extern _EFLOCONbits
	extern _MACON1bits
	extern _MACON2bits
	extern _MACON3bits
	extern _MACON4bits
	extern _MACLCON1bits
	extern _MACLCON2bits
	extern _MICONbits
	extern _MICMDbits
	extern _EWOLIEbits
	extern _EWOLIRbits
	extern _ERXFCONbits
	extern _EIEbits
	extern _ESTATbits
	extern _ECON2bits
	extern _EIRbits
	extern _EDATAbits
	extern _SSP2CON2bits
	extern _SSP2CON1bits
	extern _SSP2STATbits
	extern _ECCP2DELbits
	extern _ECCP2ASbits
	extern _ECCP3DELbits
	extern _ECCP3ASbits
	extern _RCSTA2bits
	extern _TXSTA2bits
	extern _CCP5CONbits
	extern _CCP4CONbits
	extern _T4CONbits
	extern _ECCP1DELbits
	extern _BAUDCON2bits
	extern _BAUDCTL2bits
	extern _BAUDCONbits
	extern _BAUDCON1bits
	extern _BAUDCTLbits
	extern _BAUDCTL1bits
	extern _PORTAbits
	extern _PORTBbits
	extern _PORTCbits
	extern _PORTDbits
	extern _PORTEbits
	extern _PORTFbits
	extern _PORTGbits
	extern _PORTHbits
	extern _PORTJbits
	extern _LATAbits
	extern _LATBbits
	extern _LATCbits
	extern _LATDbits
	extern _LATEbits
	extern _LATFbits
	extern _LATGbits
	extern _LATHbits
	extern _LATJbits
	extern _DDRAbits
	extern _TRISAbits
	extern _DDRBbits
	extern _TRISBbits
	extern _DDRCbits
	extern _TRISCbits
	extern _DDRDbits
	extern _TRISDbits
	extern _DDREbits
	extern _TRISEbits
	extern _DDRFbits
	extern _TRISFbits
	extern _DDRGbits
	extern _TRISGbits
	extern _DDRHbits
	extern _TRISHbits
	extern _DDRJbits
	extern _TRISJbits
	extern _OSCTUNEbits
	extern _MEMCONbits
	extern _PIE1bits
	extern _PIR1bits
	extern _IPR1bits
	extern _PIE2bits
	extern _PIR2bits
	extern _IPR2bits
	extern _PIE3bits
	extern _PIR3bits
	extern _IPR3bits
	extern _EECON1bits
	extern _RCSTAbits
	extern _RCSTA1bits
	extern _TXSTAbits
	extern _TXSTA1bits
	extern _PSPCONbits
	extern _T3CONbits
	extern _CMCONbits
	extern _CVRCONbits
	extern _ECCP1ASbits
	extern _CCP3CONbits
	extern _ECCP3CONbits
	extern _CCP2CONbits
	extern _ECCP2CONbits
	extern _CCP1CONbits
	extern _ECCP1CONbits
	extern _ADCON2bits
	extern _ADCON1bits
	extern _ADCON0bits
	extern _SSP1CON2bits
	extern _SSPCON2bits
	extern _SSP1CON1bits
	extern _SSPCON1bits
	extern _SSP1STATbits
	extern _SSPSTATbits
	extern _T2CONbits
	extern _T1CONbits
	extern _RCONbits
	extern _WDTCONbits
	extern _ECON1bits
	extern _OSCCONbits
	extern _T0CONbits
	extern _STATUSbits
	extern _INTCON3bits
	extern _INTCON2bits
	extern _INTCONbits
	extern _STKPTRbits
	extern _stdin
	extern _stdout
	extern _LCDText
	extern _MAADR5
	extern _MAADR6
	extern _MAADR3
	extern _MAADR4
	extern _MAADR1
	extern _MAADR2
	extern _EBSTSD
	extern _EBSTCON
	extern _EBSTCS
	extern _EBSTCSL
	extern _EBSTCSH
	extern _MISTAT
	extern _EFLOCON
	extern _EPAUS
	extern _EPAUSL
	extern _EPAUSH
	extern _MACON1
	extern _MACON2
	extern _MACON3
	extern _MACON4
	extern _MABBIPG
	extern _MAIPG
	extern _MAIPGL
	extern _MAIPGH
	extern _MACLCON1
	extern _MACLCON2
	extern _MAMXFL
	extern _MAMXFLL
	extern _MAMXFLH
	extern _MICON
	extern _MICMD
	extern _MIREGADR
	extern _MIWR
	extern _MIWRL
	extern _MIWRH
	extern _MIRD
	extern _MIRDL
	extern _MIRDH
	extern _EHT0
	extern _EHT1
	extern _EHT2
	extern _EHT3
	extern _EHT4
	extern _EHT5
	extern _EHT6
	extern _EHT7
	extern _EPMM0
	extern _EPMM1
	extern _EPMM2
	extern _EPMM3
	extern _EPMM4
	extern _EPMM5
	extern _EPMM6
	extern _EPMM7
	extern _EPMCS
	extern _EPMCSL
	extern _EPMCSH
	extern _EPMO
	extern _EPMOL
	extern _EPMOH
	extern _EWOLIE
	extern _EWOLIR
	extern _ERXFCON
	extern _EPKTCNT
	extern _EWRPT
	extern _EWRPTL
	extern _EWRPTH
	extern _ETXST
	extern _ETXSTL
	extern _ETXSTH
	extern _ETXND
	extern _ETXNDL
	extern _ETXNDH
	extern _ERXST
	extern _ERXSTL
	extern _ERXSTH
	extern _ERXND
	extern _ERXNDL
	extern _ERXNDH
	extern _ERXRDPT
	extern _ERXRDPTL
	extern _ERXRDPTH
	extern _ERXWRPT
	extern _ERXWRPTL
	extern _ERXWRPTH
	extern _EDMAST
	extern _EDMASTL
	extern _EDMASTH
	extern _EDMAND
	extern _EDMANDL
	extern _EDMANDH
	extern _EDMADST
	extern _EDMADSTL
	extern _EDMADSTH
	extern _EDMACS
	extern _EDMACSL
	extern _EDMACSH
	extern _EIE
	extern _ESTAT
	extern _ECON2
	extern _EIR
	extern _EDATA
	extern _SSP2CON2
	extern _SSP2CON1
	extern _SSP2STAT
	extern _SSP2ADD
	extern _SSP2BUF
	extern _ECCP2DEL
	extern _ECCP2AS
	extern _ECCP3DEL
	extern _ECCP3AS
	extern _RCSTA2
	extern _TXSTA2
	extern _TXREG2
	extern _RCREG2
	extern _SPBRG2
	extern _CCP5CON
	extern _CCPR5
	extern _CCPR5L
	extern _CCPR5H
	extern _CCP4CON
	extern _CCPR4
	extern _CCPR4L
	extern _CCPR4H
	extern _T4CON
	extern _PR4
	extern _TMR4
	extern _ECCP1DEL
	extern _ERDPT
	extern _ERDPTL
	extern _ERDPTH
	extern _BAUDCON2
	extern _BAUDCTL2
	extern _SPBRGH2
	extern _BAUDCON
	extern _BAUDCON1
	extern _BAUDCTL
	extern _BAUDCTL1
	extern _SPBRGH
	extern _SPBRGH1
	extern _PORTA
	extern _PORTB
	extern _PORTC
	extern _PORTD
	extern _PORTE
	extern _PORTF
	extern _PORTG
	extern _PORTH
	extern _PORTJ
	extern _LATA
	extern _LATB
	extern _LATC
	extern _LATD
	extern _LATE
	extern _LATF
	extern _LATG
	extern _LATH
	extern _LATJ
	extern _DDRA
	extern _TRISA
	extern _DDRB
	extern _TRISB
	extern _DDRC
	extern _TRISC
	extern _DDRD
	extern _TRISD
	extern _DDRE
	extern _TRISE
	extern _DDRF
	extern _TRISF
	extern _DDRG
	extern _TRISG
	extern _DDRH
	extern _TRISH
	extern _DDRJ
	extern _TRISJ
	extern _OSCTUNE
	extern _MEMCON
	extern _PIE1
	extern _PIR1
	extern _IPR1
	extern _PIE2
	extern _PIR2
	extern _IPR2
	extern _PIE3
	extern _PIR3
	extern _IPR3
	extern _EECON1
	extern _EECON2
	extern _RCSTA
	extern _RCSTA1
	extern _TXSTA
	extern _TXSTA1
	extern _TXREG
	extern _TXREG1
	extern _RCREG
	extern _RCREG1
	extern _SPBRG
	extern _SPBRG1
	extern _PSPCON
	extern _T3CON
	extern _TMR3L
	extern _TMR3H
	extern _CMCON
	extern _CVRCON
	extern _ECCP1AS
	extern _CCP3CON
	extern _ECCP3CON
	extern _CCPR3
	extern _CCPR3L
	extern _CCPR3H
	extern _CCP2CON
	extern _ECCP2CON
	extern _CCPR2
	extern _CCPR2L
	extern _CCPR2H
	extern _CCP1CON
	extern _ECCP1CON
	extern _CCPR1
	extern _CCPR1L
	extern _CCPR1H
	extern _ADCON2
	extern _ADCON1
	extern _ADCON0
	extern _ADRES
	extern _ADRESL
	extern _ADRESH
	extern _SSP1CON2
	extern _SSPCON2
	extern _SSP1CON1
	extern _SSPCON1
	extern _SSP1STAT
	extern _SSPSTAT
	extern _SSP1ADD
	extern _SSPADD
	extern _SSP1BUF
	extern _SSPBUF
	extern _T2CON
	extern _PR2
	extern _TMR2
	extern _T1CON
	extern _TMR1L
	extern _TMR1H
	extern _RCON
	extern _WDTCON
	extern _ECON1
	extern _OSCCON
	extern _T0CON
	extern _TMR0L
	extern _TMR0H
	extern _STATUS
	extern _FSR2L
	extern _FSR2H
	extern _PLUSW2
	extern _PREINC2
	extern _POSTDEC2
	extern _POSTINC2
	extern _INDF2
	extern _BSR
	extern _FSR1L
	extern _FSR1H
	extern _PLUSW1
	extern _PREINC1
	extern _POSTDEC1
	extern _POSTINC1
	extern _INDF1
	extern _WREG
	extern _FSR0L
	extern _FSR0H
	extern _PLUSW0
	extern _PREINC0
	extern _POSTDEC0
	extern _POSTINC0
	extern _INDF0
	extern _INTCON3
	extern _INTCON2
	extern _INTCON
	extern _PROD
	extern _PRODL
	extern _PRODH
	extern _TABLAT
	extern _TBLPTR
	extern _TBLPTRL
	extern _TBLPTRH
	extern _TBLPTRU
	extern _PC
	extern _PCL
	extern _PCLATH
	extern _PCLATU
	extern _STKPTR
	extern _TOS
	extern _TOSL
	extern _TOSH
	extern _TOSU
	extern _sprintf
	extern _ultoa
	extern _strlen
	extern _LCDInit
	extern _LCDUpdate
;--------------------------------------------------------
;	Equates to used internal registers
;--------------------------------------------------------
STATUS	equ	0xfd8
PCLATH	equ	0xffa
PCLATU	equ	0xffb
WREG	equ	0xfe8
BSR	equ	0xfe0
FSR0L	equ	0xfe9
FSR0H	equ	0xfea
FSR1L	equ	0xfe1
FSR2L	equ	0xfd9
INDF0	equ	0xfef
POSTDEC1	equ	0xfe5
PREINC1	equ	0xfe4
PLUSW2	equ	0xfdb
PRODL	equ	0xff3
PRODH	equ	0xff4


	idata
_hour	db	0x00, 0x00
_min	db	0x00, 0x00


; Internal registers
.registers	udata_ovr	0x0000
r0x00	res	1
r0x01	res	1
r0x02	res	1
r0x03	res	1
r0x04	res	1
r0x05	res	1
r0x06	res	1
r0x07	res	1
r0x08	res	1
r0x09	res	1
r0x0a	res	1
r0x0b	res	1
r0x0c	res	1
r0x0d	res	1
r0x0e	res	1
r0x0f	res	1
r0x10	res	1
r0x11	res	1
r0x12	res	1
r0x13	res	1
r0x14	res	1
r0x15	res	1

udata_clock_0	udata
_timeValue	res	6

udata_clock_1	udata
_DisplayWORD_WDigit_1_1	res	6

;--------------------------------------------------------
; interrupt vector 
;--------------------------------------------------------

;--------------------------------------------------------
; global & static initialisations
;--------------------------------------------------------
; ; Starting pCode block for absolute section
; ;-----------------------------------------
S_clock_ivec_0x2_hour_isr	code	0X000018
ivec_0x2_hour_isr:
	GOTO	_hour_isr

; I code from now on!
; ; Starting pCode block
S_clock__main	code
_main:
;	.line	67; clock.c	LCDInit();
	CALL	_LCDInit
;	.line	68; clock.c	DelayMs(100);
	MOVLW	0x10
	MOVWF	r0x00
	MOVLW	0x98
	MOVWF	r0x01
	MOVLW	0x02
	MOVWF	r0x02
	CLRF	r0x03
_00131_DS_:
	MOVFF	r0x00, r0x04
	MOVFF	r0x01, r0x05
	MOVFF	r0x02, r0x06
	MOVFF	r0x03, r0x07
	MOVLW	0xff
	ADDWF	r0x00, F
	MOVLW	0xff
	ADDWFC	r0x01, F
	MOVLW	0xff
	ADDWFC	r0x02, F
	MOVLW	0xff
	ADDWFC	r0x03, F
	MOVF	r0x04, W
	IORWF	r0x05, W
	IORWF	r0x06, W
	IORWF	r0x07, W
	BNZ	_00131_DS_
;	.line	70; clock.c	DisplayString(0,"Enter the time:");
	MOVLW	UPPER(__str_1)
	MOVWF	POSTDEC1
	MOVLW	HIGH(__str_1)
	MOVWF	POSTDEC1
	MOVLW	LOW(__str_1)
	MOVWF	POSTDEC1
	MOVLW	0x00
	MOVWF	POSTDEC1
	CALL	_DisplayString
	MOVLW	0x04
	ADDWF	FSR1L, F
;	.line	71; clock.c	DisplayString(16, "00:00");
	MOVLW	UPPER(__str_2)
	MOVWF	POSTDEC1
	MOVLW	HIGH(__str_2)
	MOVWF	POSTDEC1
	MOVLW	LOW(__str_2)
	MOVWF	POSTDEC1
	MOVLW	0x10
	MOVWF	POSTDEC1
	CALL	_DisplayString
	MOVLW	0x04
	ADDWF	FSR1L, F
;	.line	73; clock.c	BUTTON0_TRIS = 1; //configure button0 as input
	BSF	_TRISBbits, 3
;	.line	76; clock.c	RCONbits.IPEN      = 1;   //enable interrupts priority levels
	BSF	_RCONbits, 7
;	.line	77; clock.c	INTCON3bits.INT2P  = 1;   //connect INT1 interrupt (button 2) to high prio
	BSF	_INTCON3bits, 7
;	.line	78; clock.c	INTCON2bits.INTEDG2= 0;   //INT1 interrupts on falling edge
	BCF	_INTCON2bits, 4
;	.line	79; clock.c	INTCONbits.GIE     = 1;   //enable high priority interrupts
	BSF	_INTCONbits, 7
;	.line	80; clock.c	INTCON3bits.INT2E  = 1;   //enable INT1 interrupt (button 2)
	BSF	_INTCON3bits, 4
;	.line	81; clock.c	INTCON3bits.INT2F  = 0;   //clear INT1 flag
	BCF	_INTCON3bits, 1
_00138_DS_:
;	.line	83; clock.c	while(1) {
	BRA	_00138_DS_
	RETURN	

; ; Starting pCode block
S_clock__strlcpy	code
_strlcpy:
;	.line	205; clock.c	strlcpy(char *dst, const char *src, size_t siz)
	MOVFF	FSR2L, POSTDEC1
	MOVFF	FSR1L, FSR2L
	MOVFF	r0x00, POSTDEC1
	MOVFF	r0x01, POSTDEC1
	MOVFF	r0x02, POSTDEC1
	MOVFF	r0x03, POSTDEC1
	MOVFF	r0x04, POSTDEC1
	MOVFF	r0x05, POSTDEC1
	MOVFF	r0x06, POSTDEC1
	MOVFF	r0x07, POSTDEC1
	MOVFF	r0x08, POSTDEC1
	MOVFF	r0x09, POSTDEC1
	MOVFF	r0x0a, POSTDEC1
	MOVFF	r0x0b, POSTDEC1
	MOVFF	r0x0c, POSTDEC1
	MOVFF	r0x0d, POSTDEC1
	MOVFF	r0x0e, POSTDEC1
	MOVFF	r0x0f, POSTDEC1
	MOVFF	r0x10, POSTDEC1
	MOVFF	r0x11, POSTDEC1
	MOVFF	r0x12, POSTDEC1
	MOVFF	r0x13, POSTDEC1
	MOVFF	r0x14, POSTDEC1
	MOVFF	r0x15, POSTDEC1
	MOVLW	0x02
	MOVFF	PLUSW2, r0x00
	MOVLW	0x03
	MOVFF	PLUSW2, r0x01
	MOVLW	0x04
	MOVFF	PLUSW2, r0x02
	MOVLW	0x05
	MOVFF	PLUSW2, r0x03
	MOVLW	0x06
	MOVFF	PLUSW2, r0x04
	MOVLW	0x07
	MOVFF	PLUSW2, r0x05
	MOVLW	0x08
	MOVFF	PLUSW2, r0x06
	MOVLW	0x09
	MOVFF	PLUSW2, r0x07
;	.line	207; clock.c	char       *d = dst;
	MOVFF	r0x00, r0x08
	MOVFF	r0x01, r0x09
	MOVFF	r0x02, r0x0a
;	.line	208; clock.c	const char *s = src;
	MOVFF	r0x03, r0x0b
	MOVFF	r0x04, r0x0c
	MOVFF	r0x05, r0x0d
;	.line	209; clock.c	size_t      n = siz;
	MOVFF	r0x06, r0x0e
	MOVFF	r0x07, r0x0f
;	.line	212; clock.c	if (n != 0)
	MOVF	r0x06, W
	IORWF	r0x07, W
	BTFSC	STATUS, 2
	BRA	_00187_DS_
;	.line	214; clock.c	while (--n != 0)
	MOVFF	r0x03, r0x10
	MOVFF	r0x04, r0x11
	MOVFF	r0x05, r0x12
	MOVFF	r0x06, r0x13
	MOVFF	r0x07, r0x14
_00183_DS_:
	MOVLW	0xff
	ADDWF	r0x13, F
	BTFSS	STATUS, 0
	DECF	r0x14, F
	MOVF	r0x13, W
	IORWF	r0x14, W
	BZ	_00202_DS_
;	.line	216; clock.c	if ((*d++ = *s++) == '\0')
	MOVFF	r0x10, FSR0L
	MOVFF	r0x11, PRODL
	MOVF	r0x12, W
	CALL	__gptrget1
	MOVWF	r0x15
	INCF	r0x10, F
	BTFSC	STATUS, 0
	INCF	r0x11, F
	BTFSC	STATUS, 0
	INCF	r0x12, F
	MOVFF	r0x15, POSTDEC1
	MOVFF	r0x00, FSR0L
	MOVFF	r0x01, PRODL
	MOVF	r0x02, W
	CALL	__gptrput1
	INCF	r0x00, F
	BTFSC	STATUS, 0
	INCF	r0x01, F
	BTFSC	STATUS, 0
	INCF	r0x02, F
	MOVF	r0x15, W
	BNZ	_00183_DS_
_00202_DS_:
;	.line	217; clock.c	break;
	MOVFF	r0x10, r0x0b
	MOVFF	r0x11, r0x0c
	MOVFF	r0x12, r0x0d
	MOVFF	r0x00, r0x08
	MOVFF	r0x01, r0x09
	MOVFF	r0x02, r0x0a
	MOVFF	r0x13, r0x0e
	MOVFF	r0x14, r0x0f
_00187_DS_:
;	.line	222; clock.c	if (n == 0)
	MOVF	r0x0e, W
	IORWF	r0x0f, W
	BNZ	_00194_DS_
;	.line	224; clock.c	if (siz != 0)
	MOVF	r0x06, W
	IORWF	r0x07, W
	BZ	_00201_DS_
;	.line	225; clock.c	*d = '\0';          /* NUL-terminate dst */
	MOVLW	0x00
	MOVWF	POSTDEC1
	MOVFF	r0x08, FSR0L
	MOVFF	r0x09, PRODL
	MOVF	r0x0a, W
	CALL	__gptrput1
_00201_DS_:
;	.line	226; clock.c	while (*s++)
	MOVFF	r0x0b, r0x00
	MOVFF	r0x0c, r0x01
	MOVFF	r0x0d, r0x02
_00190_DS_:
	MOVFF	r0x00, FSR0L
	MOVFF	r0x01, PRODL
	MOVF	r0x02, W
	CALL	__gptrget1
	MOVWF	r0x06
	INCF	r0x00, F
	BTFSC	STATUS, 0
	INCF	r0x01, F
	BTFSC	STATUS, 0
	INCF	r0x02, F
	MOVF	r0x06, W
	BNZ	_00190_DS_
	MOVFF	r0x00, r0x0b
	MOVFF	r0x01, r0x0c
	MOVFF	r0x02, r0x0d
_00194_DS_:
;	.line	230; clock.c	return (s - src - 1);       /* count does not include NUL */
	MOVF	r0x03, W
	SUBWF	r0x0b, W
	MOVWF	r0x03
	MOVF	r0x04, W
	SUBWFB	r0x0c, W
	MOVWF	r0x04
	MOVLW	0xff
	ADDWF	r0x03, F
	BTFSS	STATUS, 0
	DECF	r0x04, F
	MOVFF	r0x04, PRODL
	MOVF	r0x03, W
	MOVFF	PREINC1, r0x15
	MOVFF	PREINC1, r0x14
	MOVFF	PREINC1, r0x13
	MOVFF	PREINC1, r0x12
	MOVFF	PREINC1, r0x11
	MOVFF	PREINC1, r0x10
	MOVFF	PREINC1, r0x0f
	MOVFF	PREINC1, r0x0e
	MOVFF	PREINC1, r0x0d
	MOVFF	PREINC1, r0x0c
	MOVFF	PREINC1, r0x0b
	MOVFF	PREINC1, r0x0a
	MOVFF	PREINC1, r0x09
	MOVFF	PREINC1, r0x08
	MOVFF	PREINC1, r0x07
	MOVFF	PREINC1, r0x06
	MOVFF	PREINC1, r0x05
	MOVFF	PREINC1, r0x04
	MOVFF	PREINC1, r0x03
	MOVFF	PREINC1, r0x02
	MOVFF	PREINC1, r0x01
	MOVFF	PREINC1, r0x00
	MOVFF	PREINC1, FSR2L
	RETURN	

; ; Starting pCode block
S_clock__DisplayString	code
_DisplayString:
;	.line	153; clock.c	void DisplayString(BYTE pos, char* text)
	MOVFF	FSR2L, POSTDEC1
	MOVFF	FSR1L, FSR2L
	MOVFF	r0x00, POSTDEC1
	MOVFF	r0x01, POSTDEC1
	MOVFF	r0x02, POSTDEC1
	MOVFF	r0x03, POSTDEC1
	MOVFF	r0x04, POSTDEC1
	MOVFF	r0x05, POSTDEC1
	MOVFF	r0x06, POSTDEC1
	MOVFF	r0x07, POSTDEC1
	MOVFF	r0x08, POSTDEC1
	MOVFF	r0x09, POSTDEC1
	MOVLW	0x02
	MOVFF	PLUSW2, r0x00
	MOVLW	0x03
	MOVFF	PLUSW2, r0x01
	MOVLW	0x04
	MOVFF	PLUSW2, r0x02
	MOVLW	0x05
	MOVFF	PLUSW2, r0x03
;	.line	155; clock.c	BYTE        l = strlen(text);/*number of actual chars in the string*/
	MOVF	r0x03, W
	MOVWF	POSTDEC1
	MOVF	r0x02, W
	MOVWF	POSTDEC1
	MOVF	r0x01, W
	MOVWF	POSTDEC1
	CALL	_strlen
	MOVWF	r0x04
	MOVFF	PRODL, r0x05
	MOVLW	0x03
	ADDWF	FSR1L, F
;	.line	156; clock.c	BYTE      max = 32-pos;    /*available space on the lcd*/
	MOVF	r0x00, W
	SUBLW	0x20
	MOVWF	r0x05
;	.line	157; clock.c	char       *d = (char*)&LCDText[pos];
	CLRF	r0x06
	MOVLW	LOW(_LCDText)
	ADDWF	r0x00, F
	MOVLW	HIGH(_LCDText)
	ADDWFC	r0x06, F
	MOVF	r0x06, W
	MOVWF	r0x06
	MOVF	r0x00, W
	MOVWF	r0x00
	MOVLW	0x80
	MOVWF	r0x07
;	.line	159; clock.c	size_t      n = (l<max)?l:max;
	MOVF	r0x05, W
	SUBWF	r0x04, W
	BNC	_00171_DS_
	MOVFF	r0x05, r0x04
_00171_DS_:
	CLRF	r0x05
;	.line	161; clock.c	if (n != 0)
	MOVF	r0x04, W
	IORWF	r0x05, W
	BZ	_00167_DS_
_00163_DS_:
;	.line	162; clock.c	while (n-- != 0)*d++ = *s++;
	MOVFF	r0x04, r0x08
	MOVFF	r0x05, r0x09
	MOVLW	0xff
	ADDWF	r0x04, F
	BTFSS	STATUS, 0
	DECF	r0x05, F
	MOVF	r0x08, W
	IORWF	r0x09, W
	BZ	_00167_DS_
	MOVFF	r0x01, FSR0L
	MOVFF	r0x02, PRODL
	MOVF	r0x03, W
	CALL	__gptrget1
	MOVWF	r0x08
	INCF	r0x01, F
	BTFSC	STATUS, 0
	INCF	r0x02, F
	BTFSC	STATUS, 0
	INCF	r0x03, F
	MOVFF	r0x08, POSTDEC1
	MOVFF	r0x00, FSR0L
	MOVFF	r0x06, PRODL
	MOVF	r0x07, W
	CALL	__gptrput1
	INCF	r0x00, F
	BTFSC	STATUS, 0
	INCF	r0x06, F
	BTFSC	STATUS, 0
	INCF	r0x07, F
	BRA	_00163_DS_
_00167_DS_:
;	.line	163; clock.c	LCDUpdate();
	CALL	_LCDUpdate
	MOVFF	PREINC1, r0x09
	MOVFF	PREINC1, r0x08
	MOVFF	PREINC1, r0x07
	MOVFF	PREINC1, r0x06
	MOVFF	PREINC1, r0x05
	MOVFF	PREINC1, r0x04
	MOVFF	PREINC1, r0x03
	MOVFF	PREINC1, r0x02
	MOVFF	PREINC1, r0x01
	MOVFF	PREINC1, r0x00
	MOVFF	PREINC1, FSR2L
	RETURN	

; ; Starting pCode block
S_clock__DisplayWORD	code
_DisplayWORD:
;	.line	114; clock.c	void DisplayWORD(BYTE pos, WORD w) //WORD is a 16 bits unsigned
	MOVFF	FSR2L, POSTDEC1
	MOVFF	FSR1L, FSR2L
	MOVFF	r0x00, POSTDEC1
	MOVFF	r0x01, POSTDEC1
	MOVFF	r0x02, POSTDEC1
	MOVFF	r0x03, POSTDEC1
	MOVFF	r0x04, POSTDEC1
	MOVFF	r0x05, POSTDEC1
	MOVLW	0x02
	MOVFF	PLUSW2, r0x00
	MOVLW	0x03
	MOVFF	PLUSW2, r0x01
	MOVLW	0x04
	MOVFF	PLUSW2, r0x02
;	.line	122; clock.c	ultoa(w, WDigit, radix);      
	CLRF	r0x03
	CLRF	r0x04
	MOVLW	0x0a
	MOVWF	POSTDEC1
	MOVLW	HIGH(_DisplayWORD_WDigit_1_1)
	MOVWF	POSTDEC1
	MOVLW	LOW(_DisplayWORD_WDigit_1_1)
	MOVWF	POSTDEC1
	MOVF	r0x04, W
	MOVWF	POSTDEC1
	MOVF	r0x03, W
	MOVWF	POSTDEC1
	MOVF	r0x02, W
	MOVWF	POSTDEC1
	MOVF	r0x01, W
	MOVWF	POSTDEC1
	CALL	_ultoa
	MOVLW	0x07
	ADDWF	FSR1L, F
;	.line	123; clock.c	for(j = 0; j < strlen((char*)WDigit); j++)
	CLRF	r0x01
_00147_DS_:
	MOVLW	HIGH(_DisplayWORD_WDigit_1_1)
	MOVWF	r0x03
	MOVLW	LOW(_DisplayWORD_WDigit_1_1)
	MOVWF	r0x02
	MOVLW	0x80
	MOVWF	r0x04
	MOVF	r0x04, W
	MOVWF	POSTDEC1
	MOVF	r0x03, W
	MOVWF	POSTDEC1
	MOVF	r0x02, W
	MOVWF	POSTDEC1
	CALL	_strlen
	MOVWF	r0x02
	MOVFF	PRODL, r0x03
	MOVLW	0x03
	ADDWF	FSR1L, F
	MOVFF	r0x01, r0x04
	CLRF	r0x05
	MOVF	r0x05, W
	ADDLW	0x80
	MOVWF	PRODL
	MOVF	r0x03, W
	ADDLW	0x80
	SUBWF	PRODL, W
	BNZ	_00157_DS_
	MOVF	r0x02, W
	SUBWF	r0x04, W
_00157_DS_:
	BC	_00150_DS_
;	.line	125; clock.c	LCDText[LCDPos++] = WDigit[j];
	MOVFF	r0x00, r0x02
	INCF	r0x00, F
	CLRF	r0x03
	MOVLW	LOW(_LCDText)
	ADDWF	r0x02, F
	MOVLW	HIGH(_LCDText)
	ADDWFC	r0x03, F
	MOVLW	LOW(_DisplayWORD_WDigit_1_1)
	ADDWF	r0x01, W
	MOVWF	r0x04
	CLRF	r0x05
	MOVLW	HIGH(_DisplayWORD_WDigit_1_1)
	ADDWFC	r0x05, F
	MOVFF	r0x04, FSR0L
	MOVFF	r0x05, FSR0H
	MOVFF	INDF0, r0x04
	MOVFF	r0x02, FSR0L
	MOVFF	r0x03, FSR0H
	MOVFF	r0x04, INDF0
;	.line	123; clock.c	for(j = 0; j < strlen((char*)WDigit); j++)
	INCF	r0x01, F
	BRA	_00147_DS_
_00150_DS_:
;	.line	127; clock.c	if(LCDPos < 32u)
	MOVFF	r0x00, r0x01
	CLRF	r0x02
	MOVLW	0x00
	SUBWF	r0x02, W
	BNZ	_00158_DS_
	MOVLW	0x20
	SUBWF	r0x01, W
_00158_DS_:
	BC	_00146_DS_
;	.line	128; clock.c	LCDText[LCDPos] = 0;
	CLRF	r0x01
	MOVLW	LOW(_LCDText)
	ADDWF	r0x00, F
	MOVLW	HIGH(_LCDText)
	ADDWFC	r0x01, F
	MOVFF	r0x00, FSR0L
	MOVFF	r0x01, FSR0H
	MOVLW	0x00
	MOVWF	INDF0
_00146_DS_:
;	.line	129; clock.c	LCDUpdate();
	CALL	_LCDUpdate
	MOVFF	PREINC1, r0x05
	MOVFF	PREINC1, r0x04
	MOVFF	PREINC1, r0x03
	MOVFF	PREINC1, r0x02
	MOVFF	PREINC1, r0x01
	MOVFF	PREINC1, r0x00
	MOVFF	PREINC1, FSR2L
	RETURN	

; ; Starting pCode block
S_clock__hour_isr	code
_hour_isr:
;	.line	31; clock.c	void hour_isr (void) interrupt 2 {
	MOVFF	WREG, POSTDEC1
	MOVFF	STATUS, POSTDEC1
	MOVFF	BSR, POSTDEC1
	MOVFF	PRODL, POSTDEC1
	MOVFF	PRODH, POSTDEC1
	MOVFF	FSR0L, POSTDEC1
	MOVFF	FSR0H, POSTDEC1
	MOVFF	PCLATH, POSTDEC1
	MOVFF	PCLATU, POSTDEC1
	MOVFF	FSR2L, POSTDEC1
	MOVFF	FSR1L, FSR2L
	MOVFF	r0x00, POSTDEC1
	MOVFF	r0x01, POSTDEC1
	MOVFF	r0x02, POSTDEC1
	MOVFF	r0x03, POSTDEC1
	MOVFF	r0x04, POSTDEC1
	MOVFF	r0x05, POSTDEC1
	MOVFF	r0x06, POSTDEC1
	MOVFF	r0x07, POSTDEC1
;	.line	33; clock.c	DelayMs(50);
	MOVLW	0x08
	MOVWF	r0x00
	MOVLW	0x4c
	MOVWF	r0x01
	MOVLW	0x01
	MOVWF	r0x02
	CLRF	r0x03
_00110_DS_:
	MOVFF	r0x00, r0x04
	MOVFF	r0x01, r0x05
	MOVFF	r0x02, r0x06
	MOVFF	r0x03, r0x07
	MOVLW	0xff
	ADDWF	r0x00, F
	MOVLW	0xff
	ADDWFC	r0x01, F
	MOVLW	0xff
	ADDWFC	r0x02, F
	MOVLW	0xff
	ADDWFC	r0x03, F
	MOVF	r0x04, W
	IORWF	r0x05, W
	IORWF	r0x06, W
	IORWF	r0x07, W
	BNZ	_00110_DS_
	BANKSEL	_hour
;	.line	34; clock.c	if (hour == 23) {
	MOVF	_hour, W, B
	XORLW	0x17
	BNZ	_00125_DS_
	BANKSEL	(_hour + 1)
	MOVF	(_hour + 1), W, B
	BZ	_00126_DS_
_00125_DS_:
	BRA	_00117_DS_
_00126_DS_:
	BANKSEL	_hour
;	.line	35; clock.c	hour = 0;
	CLRF	_hour, B
	BANKSEL	(_hour + 1)
	CLRF	(_hour + 1), B
	BRA	_00118_DS_
_00117_DS_:
	BANKSEL	_hour
;	.line	37; clock.c	hour++;
	INCF	_hour, F, B
	BNC	_10181_DS_
	BANKSEL	(_hour + 1)
	INCF	(_hour + 1), F, B
_10181_DS_:
_00118_DS_:
;	.line	39; clock.c	sprintf(&timeValue[0], "%02d", hour);
	MOVLW	HIGH(_timeValue)
	MOVWF	r0x01
	MOVLW	LOW(_timeValue)
	MOVWF	r0x00
	MOVLW	0x80
	MOVWF	r0x02
	BANKSEL	(_hour + 1)
	MOVF	(_hour + 1), W, B
	MOVWF	POSTDEC1
	BANKSEL	_hour
	MOVF	_hour, W, B
	MOVWF	POSTDEC1
	MOVLW	UPPER(__str_0)
	MOVWF	POSTDEC1
	MOVLW	HIGH(__str_0)
	MOVWF	POSTDEC1
	MOVLW	LOW(__str_0)
	MOVWF	POSTDEC1
	MOVF	r0x02, W
	MOVWF	POSTDEC1
	MOVF	r0x01, W
	MOVWF	POSTDEC1
	MOVF	r0x00, W
	MOVWF	POSTDEC1
	CALL	_sprintf
	MOVLW	0x08
	ADDWF	FSR1L, F
;	.line	40; clock.c	DisplayString(16, timeValue);
	MOVLW	HIGH(_timeValue)
	MOVWF	r0x01
	MOVLW	LOW(_timeValue)
	MOVWF	r0x00
	MOVLW	0x80
	MOVWF	r0x02
	MOVF	r0x02, W
	MOVWF	POSTDEC1
	MOVF	r0x01, W
	MOVWF	POSTDEC1
	MOVF	r0x00, W
	MOVWF	POSTDEC1
	MOVLW	0x10
	MOVWF	POSTDEC1
	CALL	_DisplayString
	MOVLW	0x04
	ADDWF	FSR1L, F
; ;;!!! pic16_aopOp:1071 called for a spillLocation -- assigning WREG instead --- CHECK
;	.line	41; clock.c	if(BUTTON0_IO);  //just read the bit
	CLRF	WREG
	BTFSC	_PORTBbits, 3
	INCF	WREG, F
;	.line	42; clock.c	INTCON3bits.INT1F  = 0;   //clear INT1 flag
	BCF	_INTCON3bits, 0
	MOVFF	PREINC1, r0x07
	MOVFF	PREINC1, r0x06
	MOVFF	PREINC1, r0x05
	MOVFF	PREINC1, r0x04
	MOVFF	PREINC1, r0x03
	MOVFF	PREINC1, r0x02
	MOVFF	PREINC1, r0x01
	MOVFF	PREINC1, r0x00
	MOVFF	PREINC1, FSR2L
	MOVFF	PREINC1, PCLATU
	MOVFF	PREINC1, PCLATH
	MOVFF	PREINC1, FSR0H
	MOVFF	PREINC1, FSR0L
	MOVFF	PREINC1, PRODH
	MOVFF	PREINC1, PRODL
	MOVFF	PREINC1, BSR
	MOVFF	PREINC1, STATUS
	MOVFF	PREINC1, WREG
	RETFIE	

; ; Starting pCode block
S_clock__updateTime	code
_updateTime:
;	.line	23; clock.c	void updateTime(char* timeValue, int hour, int min) {
	MOVFF	FSR2L, POSTDEC1
	MOVFF	FSR1L, FSR2L
	MOVFF	r0x00, POSTDEC1
	MOVFF	r0x01, POSTDEC1
	MOVFF	r0x02, POSTDEC1
	MOVFF	r0x03, POSTDEC1
	MOVFF	r0x04, POSTDEC1
	MOVFF	r0x05, POSTDEC1
	MOVFF	r0x06, POSTDEC1
	MOVFF	r0x07, POSTDEC1
	MOVLW	0x02
	MOVFF	PLUSW2, r0x00
	MOVLW	0x03
	MOVFF	PLUSW2, r0x01
	MOVLW	0x04
	MOVFF	PLUSW2, r0x02
	MOVLW	0x05
	MOVFF	PLUSW2, r0x03
	MOVLW	0x06
	MOVFF	PLUSW2, r0x04
	MOVLW	0x07
	MOVFF	PLUSW2, r0x05
	MOVLW	0x08
	MOVFF	PLUSW2, r0x06
;	.line	24; clock.c	sprintf(&timeValue[0], "%02d", hour);
	MOVF	r0x04, W
	MOVWF	POSTDEC1
	MOVF	r0x03, W
	MOVWF	POSTDEC1
	MOVLW	UPPER(__str_0)
	MOVWF	POSTDEC1
	MOVLW	HIGH(__str_0)
	MOVWF	POSTDEC1
	MOVLW	LOW(__str_0)
	MOVWF	POSTDEC1
	MOVF	r0x02, W
	MOVWF	POSTDEC1
	MOVF	r0x01, W
	MOVWF	POSTDEC1
	MOVF	r0x00, W
	MOVWF	POSTDEC1
	CALL	_sprintf
	MOVLW	0x08
	ADDWF	FSR1L, F
;	.line	25; clock.c	timeValue[2] = ':';
	MOVF	r0x00, W
	ADDLW	0x02
	MOVWF	r0x03
	MOVLW	0x00
	ADDWFC	r0x01, W
	MOVWF	r0x04
	MOVLW	0x00
	ADDWFC	r0x02, W
	MOVWF	r0x07
	MOVLW	0x3a
	MOVWF	POSTDEC1
	MOVFF	r0x03, FSR0L
	MOVFF	r0x04, PRODL
	MOVF	r0x07, W
	CALL	__gptrput1
;	.line	26; clock.c	sprintf(&timeValue[3], "%02d", min);
	MOVF	r0x00, W
	ADDLW	0x03
	MOVWF	r0x03
	MOVLW	0x00
	ADDWFC	r0x01, W
	MOVWF	r0x04
	MOVLW	0x00
	ADDWFC	r0x02, W
	MOVWF	r0x07
	MOVF	r0x06, W
	MOVWF	POSTDEC1
	MOVF	r0x05, W
	MOVWF	POSTDEC1
	MOVLW	UPPER(__str_0)
	MOVWF	POSTDEC1
	MOVLW	HIGH(__str_0)
	MOVWF	POSTDEC1
	MOVLW	LOW(__str_0)
	MOVWF	POSTDEC1
	MOVF	r0x07, W
	MOVWF	POSTDEC1
	MOVF	r0x04, W
	MOVWF	POSTDEC1
	MOVF	r0x03, W
	MOVWF	POSTDEC1
	CALL	_sprintf
	MOVLW	0x08
	ADDWF	FSR1L, F
;	.line	27; clock.c	DisplayString(16, timeValue);
	MOVF	r0x02, W
	MOVWF	POSTDEC1
	MOVF	r0x01, W
	MOVWF	POSTDEC1
	MOVF	r0x00, W
	MOVWF	POSTDEC1
	MOVLW	0x10
	MOVWF	POSTDEC1
	CALL	_DisplayString
	MOVLW	0x04
	ADDWF	FSR1L, F
	MOVFF	PREINC1, r0x07
	MOVFF	PREINC1, r0x06
	MOVFF	PREINC1, r0x05
	MOVFF	PREINC1, r0x04
	MOVFF	PREINC1, r0x03
	MOVFF	PREINC1, r0x02
	MOVFF	PREINC1, r0x01
	MOVFF	PREINC1, r0x00
	MOVFF	PREINC1, FSR2L
	RETURN	

; ; Starting pCode block
__str_0:
	DB	0x25, 0x30, 0x32, 0x64, 0x00
; ; Starting pCode block
__str_1:
	DB	0x45, 0x6e, 0x74, 0x65, 0x72, 0x20, 0x74, 0x68, 0x65, 0x20, 0x74, 0x69
	DB	0x6d, 0x65, 0x3a, 0x00
; ; Starting pCode block
__str_2:
	DB	0x30, 0x30, 0x3a, 0x30, 0x30, 0x00


; Statistics:
; code size:	 1826 (0x0722) bytes ( 1.39%)
;           	  913 (0x0391) words
; udata size:	   12 (0x000c) bytes ( 0.31%)
; access size:	   22 (0x0016) bytes


	end
